; Function Attrs: mustprogress uwtable
define void @_ZN5Ipopt17RegisteredOptions22SetRegisteringCategoryENS_8SmartPtrINS_18RegisteredCategoryEEE(ptr noundef nonnull align 8 dereferenceable(128) %0, ptr noundef readonly captures(none) %1) unnamed_addr #3 align 2 {
  %3 = getelementptr inbounds nuw i8, ptr %0, i64 120
  %4 = load ptr, ptr %1, align 8, !tbaa !31
  %.not.i.i.i = icmp eq ptr %4, null
  br i1 %.not.i.i.i, label %9, label %5

5:                                                ; preds = %2
  %6 = getelementptr inbounds nuw i8, ptr %4, i64 8
  %7 = load i32, ptr %6, align 8, !tbaa !59
  %8 = add nsw i32 %7, 1
  store i32 %8, ptr %6, align 8, !tbaa !59
  br label %9

9:                                                ; preds = %5, %2
  %10 = load ptr, ptr %3, align 8, !tbaa !31
  %.not.i.i.i.i = icmp eq ptr %10, null
  br i1 %.not.i.i.i.i, label %_ZN5Ipopt8SmartPtrINS_18RegisteredCategoryEEaSERKS2_.exit, label %11

11:                                               ; preds = %9
  %12 = getelementptr inbounds nuw i8, ptr %10, i64 8
  %13 = load i32, ptr %12, align 8, !tbaa !59
  %14 = add nsw i32 %13, -1
  store i32 %14, ptr %12, align 8, !tbaa !59
  %15 = icmp eq i32 %14, 0
  br i1 %15, label %16, label %_ZN5Ipopt8SmartPtrINS_18RegisteredCategoryEEaSERKS2_.exit

16:                                               ; preds = %11
  %17 = load ptr, ptr %10, align 8, !tbaa !32
  %18 = getelementptr inbounds nuw i8, ptr %17, i64 8
  %19 = load ptr, ptr %18, align 8
  tail call void %19(ptr noundef nonnull align 8 dereferenceable(80) %10) #23
  br label %_ZN5Ipopt8SmartPtrINS_18RegisteredCategoryEEaSERKS2_.exit

_ZN5Ipopt8SmartPtrINS_18RegisteredCategoryEEaSERKS2_.exit: ; preds = %9, %11, %16
  store ptr %4, ptr %3, align 8, !tbaa !31
  %20 = load ptr, ptr %1, align 8, !tbaa !31
  %.not = icmp eq ptr %20, null
  br i1 %.not, label %32, label %21

21:                                               ; preds = %_ZN5Ipopt8SmartPtrINS_18RegisteredCategoryEEaSERKS2_.exit
  %22 = getelementptr inbounds nuw i8, ptr %0, i64 64
  %23 = getelementptr inbounds nuw i8, ptr %20, i64 16
  %24 = tail call noundef nonnull align 8 dereferenceable(8) ptr @_ZNSt3mapINSt7__cxx1112basic_stringIcSt11char_traitsIcESaIcEEEN5Ipopt8SmartPtrINS6_18RegisteredCategoryEEESt4lessIS5_ESaISt4pairIKS5_S9_EEEixERSD_(ptr noundef nonnull align 8 dereferenceable(48) %22, ptr noundef nonnull align 8 dereferenceable(32) %23)
  %25 = load ptr, ptr %24, align 8, !tbaa !31
  %.not6 = icmp eq ptr %25, null
  br i1 %.not6, label %26, label %32

26:                                               ; preds = %21
  %27 = load ptr, ptr %1, align 8, !tbaa !31
  %.not.i.i.i3 = icmp eq ptr %27, null
  br i1 %.not.i.i.i3, label %_ZN5Ipopt8SmartPtrINS_18RegisteredCategoryEEaSERKS2_.exit5, label %28

28:                                               ; preds = %26
  %29 = getelementptr inbounds nuw i8, ptr %27, i64 8
  %30 = load i32, ptr %29, align 8, !tbaa !59
  %31 = add nsw i32 %30, 1
  store i32 %31, ptr %29, align 8, !tbaa !59
  br label %_ZN5Ipopt8SmartPtrINS_18RegisteredCategoryEEaSERKS2_.exit5

_ZN5Ipopt8SmartPtrINS_18RegisteredCategoryEEaSERKS2_.exit5: ; preds = %26, %28
  store ptr %27, ptr %24, align 8, !tbaa !31
  br label %32

32:                                               ; preds = %_ZN5Ipopt8SmartPtrINS_18RegisteredCategoryEEaSERKS2_.exit5, %21, %_ZN5Ipopt8SmartPtrINS_18RegisteredCategoryEEaSERKS2_.exit
  ret void
}